target datalayout = "e-m:e-p270:32:32-p271:32:32-p272:64:64-i64:64-i128:128-f80:128-n8:16:32:64-S128"
target triple = "x86_64-pc-linux-gnu"

%class.InterfaceTreeCacheModel = type { %class.QIdentityProxyModel, ptr, ptr, %class.QList, %class.QList }
%class.QIdentityProxyModel = type { %class.QAbstractProxyModel }
%class.QAbstractProxyModel = type { %class.QAbstractItemModel }
%class.QAbstractItemModel = type { %class.QObject }
%class.QObject = type { ptr, %class.QScopedPointer }
%class.QScopedPointer = type { ptr }
%class.QList = type { %struct.QArrayDataPointer }
%struct.QArrayDataPointer = type { ptr, ptr, i64 }

; Function Attrs: mustprogress null_pointer_is_valid sspstrong uwtable
define noundef i32 @_ZNK23InterfaceTreeCacheModel8rowCountERK11QModelIndex(ptr noundef align 8 dereferenceable_or_null(80) %0, ptr noundef align 8 dereferenceable(24) %1) unnamed_addr #0 align 2 {
  %3 = alloca ptr, align 8
  %4 = alloca ptr, align 8
  %5 = alloca i32, align 4
  store ptr %0, ptr %3, align 8
  store ptr %1, ptr %4, align 8
  %6 = load ptr, ptr %3, align 8
  call void @llvm.lifetime.start.p0(i64 4, ptr %5) #22
  %7 = getelementptr inbounds nuw %class.InterfaceTreeCacheModel, ptr %6, i32 0, i32 1
  %8 = load ptr, ptr %7, align 8
  %9 = load ptr, ptr %4, align 8
  %10 = load ptr, ptr %8, align 8
  %11 = getelementptr inbounds ptr, ptr %10, i64 15
  %12 = load ptr, ptr %11, align 8
  %13 = call noundef i32 %12(ptr noundef align 8 dereferenceable_or_null(32) %8, ptr noundef align 8 dereferenceable(24) %9)
  store i32 %13, ptr %5, align 4
  %14 = load i32, ptr %5, align 4
  call void @llvm.lifetime.end.p0(i64 4, ptr %5) #22
  ret i32 %14
}