; Function Attrs: mustprogress null_pointer_is_valid sspstrong uwtable
define noundef i32 @_ZNK23InterfaceTreeCacheModel8rowCountERK11QModelIndex(ptr noundef readonly align 8 captures(none) dereferenceable_or_null(80) %0, ptr noundef align 8 dereferenceable(24) %1) unnamed_addr #0 align 2 {
  %3 = getelementptr inbounds nuw i8, ptr %0, i64 16
  %4 = load ptr, ptr %3, align 8
  %5 = load ptr, ptr %4, align 8
  %6 = getelementptr inbounds nuw i8, ptr %5, i64 120
  %7 = load ptr, ptr %6, align 8
  %8 = tail call noundef i32 %7(ptr noundef align 8 dereferenceable_or_null(32) %4, ptr noundef align 8 dereferenceable(24) %1)
  ret i32 %8
}